
usart_int.out:     file format elf32-avr

SYMBOL TABLE:
00800100 l    d  .data	00000000 .data
00000000 l    d  .text	00000000 .text
00800100 l    d  .bss	00000000 .bss
00000000 l    d  .stab	00000000 .stab
00000000 l    d  .stabstr	00000000 .stabstr
00000000 l    d  .comment	00000000 .comment
00000000 l    d  .note.gnu.avr.deviceinfo	00000000 .note.gnu.avr.deviceinfo
00000000 l    d  .debug_info	00000000 .debug_info
00000000 l    d  .debug_abbrev	00000000 .debug_abbrev
00000000 l    d  .debug_line	00000000 .debug_line
00000000 l    d  .debug_str	00000000 .debug_str
00000000 l    df *ABS*	00000000 usart_int.c
0000003e l       *ABS*	00000000 __SP_H__
0000003d l       *ABS*	00000000 __SP_L__
0000003f l       *ABS*	00000000 __SREG__
00000000 l       *ABS*	00000000 __tmp_reg__
00000001 l       *ABS*	00000000 __zero_reg__
00000000 l    df *ABS*	00000000 _exit.o
0000017a l       .text	00000000 __stop_program
00000000 l    df *ABS*	00000000 _clear_bss.o
000000c2 l       .text	00000000 .do_clear_bss_start
000000c0 l       .text	00000000 .do_clear_bss_loop
000000d0  w      .text	00000000 __vector_38
000000d0  w      .text	00000000 __vector_22
000000d0  w      .text	00000000 __vector_28
000000d0  w      .text	00000000 __vector_1
000000d0  w      .text	00000000 __vector_32
00000a00 g       *ABS*	00000000 __DATA_REGION_LENGTH__
00000000 g       *ABS*	00000000 __TEXT_REGION_ORIGIN__
000000d0  w      .text	00000000 __vector_34
000000ac g       .text	00000000 __trampolines_start
0000017c g       .text	00000000 _etext
000000d0  w      .text	00000000 __vector_24
000000d0  w      .text	00000000 __vector_12
000000d0 g       .text	00000000 __bad_interrupt
0000017c g       *ABS*	00000000 __data_load_end
000000d0  w      .text	00000000 __vector_6
000000d0  w      .text	00000000 __vector_31
000000d0  w      .text	00000000 __vector_35
00800100 g     O .bss	00000001 flag
000000ac g       .text	00000000 __trampolines_end
000000d0  w      .text	00000000 __vector_39
000000d0  w      .text	00000000 __vector_3
000000d0  w      .text	00000000 __vector_23
0000017c g       *ABS*	00000000 __data_load_start
000000ac g       .text	00000000 __dtors_end
00800102 g       .bss	00000000 __bss_end
000000d0  w      .text	00000000 __vector_30
00000400 g       *ABS*	00000000 __LOCK_REGION_LENGTH__
000000d4 g     F .text	00000026 __vector_25
000000d0  w      .text	00000000 __vector_11
000000ac  w      .text	00000000 __init
000000d0  w      .text	00000000 __vector_13
000000d0  w      .text	00000000 __vector_17
000000d0  w      .text	00000000 __vector_19
000000fa g     F .text	0000000e uart_transmit
000000d0  w      .text	00000000 __vector_7
000000b8 g       .text	00000010 .hidden __do_clear_bss
000000d0  w      .text	00000000 __vector_41
00810000 g       .stab	00000000 __eeprom_end
00000000 g       .text	00000000 __vectors
000000d0  w      .text	00000000 __vector_27
00000000  w      .text	00000000 __vector_default
000000d0  w      .text	00000000 __vector_5
000000d0  w      .text	00000000 __vector_33
00000400 g       *ABS*	00000000 __SIGNATURE_REGION_LENGTH__
000000ac g       .text	00000000 __ctors_start
000000d0  w      .text	00000000 __vector_37
00800100 g       .bss	00000000 __bss_start
00000108 g     F .text	00000070 main
000000d0  w      .text	00000000 __vector_4
00800100 g       *ABS*	00000000 __DATA_REGION_ORIGIN__
00000000  w      *ABS*	00000000 __heap_end
000000d0  w      .text	00000000 __vector_9
000000d0  w      .text	00000000 __vector_2
00000400 g       *ABS*	00000000 __USER_SIGNATURE_REGION_LENGTH__
000000d0  w      .text	00000000 __vector_21
000000d0  w      .text	00000000 __vector_15
000000d0  w      .text	00000000 __vector_36
000000d0  w      .text	00000000 __vector_29
000000ac g       .text	00000000 __dtors_start
000000ac g       .text	00000000 __ctors_end
00000aff  w      *ABS*	00000000 __stack
000000d0  w      .text	00000000 __vector_40
00800100 g       .data	00000000 _edata
00800102 g       .stab	00000000 _end
000000d0  w      .text	00000000 __vector_8
000000d0  w      .text	00000000 __vector_26
00000178  w      .text	00000000 .hidden exit
00000400 g       *ABS*	00000000 __EEPROM_REGION_LENGTH__
00000178 g       .text	00000000 .hidden _exit
000000d0  w      .text	00000000 __vector_14
000000d0  w      .text	00000000 __vector_10
000000d0  w      .text	00000000 __vector_16
000000d0  w      .text	00000000 __vector_18
00000003 g       *ABS*	00000000 __FUSE_REGION_LENGTH__
00008000 g       *ABS*	00000000 __TEXT_REGION_LENGTH__
000000d0  w      .text	00000000 __vector_20
000000d0  w      .text	00000000 __vector_42
00800101 g     O .bss	00000001 received



Disassembly of section .text:

00000000 <__vectors>:
   0:	0c 94 56 00 	jmp	0xac	; 0xac <__ctors_end>
   4:	0c 94 68 00 	jmp	0xd0	; 0xd0 <__bad_interrupt>
   8:	0c 94 68 00 	jmp	0xd0	; 0xd0 <__bad_interrupt>
   c:	0c 94 68 00 	jmp	0xd0	; 0xd0 <__bad_interrupt>
  10:	0c 94 68 00 	jmp	0xd0	; 0xd0 <__bad_interrupt>
  14:	0c 94 68 00 	jmp	0xd0	; 0xd0 <__bad_interrupt>
  18:	0c 94 68 00 	jmp	0xd0	; 0xd0 <__bad_interrupt>
  1c:	0c 94 68 00 	jmp	0xd0	; 0xd0 <__bad_interrupt>
  20:	0c 94 68 00 	jmp	0xd0	; 0xd0 <__bad_interrupt>
  24:	0c 94 68 00 	jmp	0xd0	; 0xd0 <__bad_interrupt>
  28:	0c 94 68 00 	jmp	0xd0	; 0xd0 <__bad_interrupt>
  2c:	0c 94 68 00 	jmp	0xd0	; 0xd0 <__bad_interrupt>
  30:	0c 94 68 00 	jmp	0xd0	; 0xd0 <__bad_interrupt>
  34:	0c 94 68 00 	jmp	0xd0	; 0xd0 <__bad_interrupt>
  38:	0c 94 68 00 	jmp	0xd0	; 0xd0 <__bad_interrupt>
  3c:	0c 94 68 00 	jmp	0xd0	; 0xd0 <__bad_interrupt>
  40:	0c 94 68 00 	jmp	0xd0	; 0xd0 <__bad_interrupt>
  44:	0c 94 68 00 	jmp	0xd0	; 0xd0 <__bad_interrupt>
  48:	0c 94 68 00 	jmp	0xd0	; 0xd0 <__bad_interrupt>
  4c:	0c 94 68 00 	jmp	0xd0	; 0xd0 <__bad_interrupt>
  50:	0c 94 68 00 	jmp	0xd0	; 0xd0 <__bad_interrupt>
  54:	0c 94 68 00 	jmp	0xd0	; 0xd0 <__bad_interrupt>
  58:	0c 94 68 00 	jmp	0xd0	; 0xd0 <__bad_interrupt>
  5c:	0c 94 68 00 	jmp	0xd0	; 0xd0 <__bad_interrupt>
  60:	0c 94 68 00 	jmp	0xd0	; 0xd0 <__bad_interrupt>
  64:	0c 94 6a 00 	jmp	0xd4	; 0xd4 <__vector_25>
  68:	0c 94 68 00 	jmp	0xd0	; 0xd0 <__bad_interrupt>
  6c:	0c 94 68 00 	jmp	0xd0	; 0xd0 <__bad_interrupt>
  70:	0c 94 68 00 	jmp	0xd0	; 0xd0 <__bad_interrupt>
  74:	0c 94 68 00 	jmp	0xd0	; 0xd0 <__bad_interrupt>
  78:	0c 94 68 00 	jmp	0xd0	; 0xd0 <__bad_interrupt>
  7c:	0c 94 68 00 	jmp	0xd0	; 0xd0 <__bad_interrupt>
  80:	0c 94 68 00 	jmp	0xd0	; 0xd0 <__bad_interrupt>
  84:	0c 94 68 00 	jmp	0xd0	; 0xd0 <__bad_interrupt>
  88:	0c 94 68 00 	jmp	0xd0	; 0xd0 <__bad_interrupt>
  8c:	0c 94 68 00 	jmp	0xd0	; 0xd0 <__bad_interrupt>
  90:	0c 94 68 00 	jmp	0xd0	; 0xd0 <__bad_interrupt>
  94:	0c 94 68 00 	jmp	0xd0	; 0xd0 <__bad_interrupt>
  98:	0c 94 68 00 	jmp	0xd0	; 0xd0 <__bad_interrupt>
  9c:	0c 94 68 00 	jmp	0xd0	; 0xd0 <__bad_interrupt>
  a0:	0c 94 68 00 	jmp	0xd0	; 0xd0 <__bad_interrupt>
  a4:	0c 94 68 00 	jmp	0xd0	; 0xd0 <__bad_interrupt>
  a8:	0c 94 68 00 	jmp	0xd0	; 0xd0 <__bad_interrupt>

000000ac <__ctors_end>:
  ac:	11 24       	eor	r1, r1
  ae:	1f be       	out	0x3f, r1	; 63
  b0:	cf ef       	ldi	r28, 0xFF	; 255
  b2:	da e0       	ldi	r29, 0x0A	; 10
  b4:	de bf       	out	0x3e, r29	; 62
  b6:	cd bf       	out	0x3d, r28	; 61

000000b8 <__do_clear_bss>:
  b8:	21 e0       	ldi	r18, 0x01	; 1
  ba:	a0 e0       	ldi	r26, 0x00	; 0
  bc:	b1 e0       	ldi	r27, 0x01	; 1
  be:	01 c0       	rjmp	.+2      	; 0xc2 <.do_clear_bss_start>

000000c0 <.do_clear_bss_loop>:
  c0:	1d 92       	st	X+, r1

000000c2 <.do_clear_bss_start>:
  c2:	a2 30       	cpi	r26, 0x02	; 2
  c4:	b2 07       	cpc	r27, r18
  c6:	e1 f7       	brne	.-8      	; 0xc0 <.do_clear_bss_loop>
  c8:	0e 94 84 00 	call	0x108	; 0x108 <main>
  cc:	0c 94 bc 00 	jmp	0x178	; 0x178 <_exit>

000000d0 <__bad_interrupt>:
  d0:	0c 94 00 00 	jmp	0	; 0x0 <__vectors>

000000d4 <__vector_25>:
                                         _FDEV_SETUP_WRITE);
#endif

volatile char received,flag=0;

ISR(USART1_RX_vect) {received=UDR1;flag=1;}
  d4:	1f 92       	push	r1
  d6:	0f 92       	push	r0
  d8:	0f b6       	in	r0, 0x3f	; 63
  da:	0f 92       	push	r0
  dc:	11 24       	eor	r1, r1
  de:	8f 93       	push	r24
  e0:	80 91 ce 00 	lds	r24, 0x00CE	; 0x8000ce <__TEXT_REGION_LENGTH__+0x7f80ce>
  e4:	80 93 01 01 	sts	0x0101, r24	; 0x800101 <received>
  e8:	81 e0       	ldi	r24, 0x01	; 1
  ea:	80 93 00 01 	sts	0x0100, r24	; 0x800100 <__DATA_REGION_ORIGIN__>
  ee:	8f 91       	pop	r24
  f0:	0f 90       	pop	r0
  f2:	0f be       	out	0x3f, r0	; 63
  f4:	0f 90       	pop	r0
  f6:	1f 90       	pop	r1
  f8:	18 95       	reti

000000fa <uart_transmit>:

void uart_transmit( unsigned char data )
{while (!(UCSR1A&(1<<UDRE1))) ;
  fa:	90 91 c8 00 	lds	r25, 0x00C8	; 0x8000c8 <__TEXT_REGION_LENGTH__+0x7f80c8>
  fe:	95 ff       	sbrs	r25, 5
 100:	fc cf       	rjmp	.-8      	; 0xfa <uart_transmit>
 UDR1 = data;
 102:	80 93 ce 00 	sts	0x00CE, r24	; 0x8000ce <__TEXT_REGION_LENGTH__+0x7f80ce>
 106:	08 95       	ret

00000108 <main>:
}

int main(void){
unsigned short baud;
  DDRB |=1<<PORTB5;    // LEDs
 108:	25 9a       	sbi	0x04, 5	; 4
  PORTB |= 1<<PORTB5;
 10a:	2d 9a       	sbi	0x05, 5	; 5
#ifndef atmega32u2
  DDRE |=1<<PORTE6;
 10c:	6e 9a       	sbi	0x0d, 6	; 13
  PORTE &= ~1<<PORTE6;
 10e:	8e b1       	in	r24, 0x0e	; 14
 110:	80 78       	andi	r24, 0x80	; 128
 112:	8e b9       	out	0x0e, r24	; 14
#endif

  UCSR1A = 0;                           // importantly U2X1 = 0
 114:	10 92 c8 00 	sts	0x00C8, r1	; 0x8000c8 <__TEXT_REGION_LENGTH__+0x7f80c8>
  UCSR1B = (1 << RXEN1) | (1 << TXEN1); // enable receiver and transmitter
 118:	88 e1       	ldi	r24, 0x18	; 24
 11a:	80 93 c9 00 	sts	0x00C9, r24	; 0x8000c9 <__TEXT_REGION_LENGTH__+0x7f80c9>
  UCSR1B|= (1 << RXCIE1);               // ACTIVATION INTERRUPTION RX Completed
 11e:	80 91 c9 00 	lds	r24, 0x00C9	; 0x8000c9 <__TEXT_REGION_LENGTH__+0x7f80c9>
 122:	80 68       	ori	r24, 0x80	; 128
 124:	80 93 c9 00 	sts	0x00C9, r24	; 0x8000c9 <__TEXT_REGION_LENGTH__+0x7f80c9>
  UCSR1C = _BV(UCSZ11) | _BV(UCSZ10);   // no parity, 8 data bits, 1 stop bit
 128:	86 e0       	ldi	r24, 0x06	; 6
 12a:	80 93 ca 00 	sts	0x00CA, r24	; 0x8000ca <__TEXT_REGION_LENGTH__+0x7f80ca>
// UCSR1D = 0;                           // no cts, no rts
  baud  = (((( F_CPU / ( USART_BAUDRATE * 16UL))) - 1));
  UBRR1H = (unsigned char)(baud>>8);
 12e:	10 92 cd 00 	sts	0x00CD, r1	; 0x8000cd <__TEXT_REGION_LENGTH__+0x7f80cd>
  UBRR1L = (unsigned char)baud;
 132:	87 e6       	ldi	r24, 0x67	; 103
 134:	80 93 cc 00 	sts	0x00CC, r24	; 0x8000cc <__TEXT_REGION_LENGTH__+0x7f80cc>

  USBCON=0; // desactive l'interruption USB
 138:	10 92 d8 00 	sts	0x00D8, r1	; 0x8000d8 <__TEXT_REGION_LENGTH__+0x7f80d8>
  sei();
 13c:	78 94       	sei
#ifdef atmega32u2
  stdout=&mystdout;
#endif 

  while (1){
    PORTB^=1<<PORTB5; 
 13e:	c0 e2       	ldi	r28, 0x20	; 32
#ifndef atmega32u2
    PORTE^=1<<PORTE6;
 140:	d0 e4       	ldi	r29, 0x40	; 64
#ifdef atmega32u2
  stdout=&mystdout;
#endif 

  while (1){
    PORTB^=1<<PORTB5; 
 142:	85 b1       	in	r24, 0x05	; 5
 144:	8c 27       	eor	r24, r28
 146:	85 b9       	out	0x05, r24	; 5
#ifndef atmega32u2
    PORTE^=1<<PORTE6;
 148:	8e b1       	in	r24, 0x0e	; 14
 14a:	8d 27       	eor	r24, r29
 14c:	8e b9       	out	0x0e, r24	; 14
	#else
		//round up by default
		__ticks_dc = (uint32_t)(ceil(fabs(__tmp)));
	#endif

	__builtin_avr_delay_cycles(__ticks_dc);
 14e:	2f ef       	ldi	r18, 0xFF	; 255
 150:	81 ee       	ldi	r24, 0xE1	; 225
 152:	94 e0       	ldi	r25, 0x04	; 4
 154:	21 50       	subi	r18, 0x01	; 1
 156:	80 40       	sbci	r24, 0x00	; 0
 158:	90 40       	sbci	r25, 0x00	; 0
 15a:	e1 f7       	brne	.-8      	; 0x154 <main+0x4c>
 15c:	00 c0       	rjmp	.+0      	; 0x15e <main+0x56>
 15e:	00 00       	nop
#endif
    _delay_ms(100);  //Attente de 500ms

    if (flag!=0) {flag=0;uart_transmit(received+1);}
 160:	80 91 00 01 	lds	r24, 0x0100	; 0x800100 <__DATA_REGION_ORIGIN__>
 164:	88 23       	and	r24, r24
 166:	69 f3       	breq	.-38     	; 0x142 <main+0x3a>
 168:	10 92 00 01 	sts	0x0100, r1	; 0x800100 <__DATA_REGION_ORIGIN__>
 16c:	80 91 01 01 	lds	r24, 0x0101	; 0x800101 <received>
 170:	8f 5f       	subi	r24, 0xFF	; 255
 172:	0e 94 7d 00 	call	0xfa	; 0xfa <uart_transmit>
 176:	e5 cf       	rjmp	.-54     	; 0x142 <main+0x3a>

00000178 <_exit>:
 178:	f8 94       	cli

0000017a <__stop_program>:
 17a:	ff cf       	rjmp	.-2      	; 0x17a <__stop_program>
